; Function Attrs: mustprogress null_pointer_is_valid sspstrong uwtable
define noundef ptr @_ZNK12ProfileModel2atEi(ptr noundef readonly align 8 captures(none) dereferenceable_or_null(104) %0, i32 noundef %1) local_unnamed_addr #0 align 2 {
  %3 = icmp slt i32 %1, 0
  br i1 %3, label %14, label %4

4:                                                ; preds = %2
  %5 = zext nneg i32 %1 to i64
  %6 = getelementptr inbounds nuw i8, ptr %0, i64 40
  %7 = load i64, ptr %6, align 8
  %.not = icmp sgt i64 %7, %5
  br i1 %.not, label %8, label %14

8:                                                ; preds = %4
  %9 = getelementptr inbounds nuw i8, ptr %0, i64 32
  %10 = load ptr, ptr %9, align 8
  %11 = getelementptr ptr, ptr %10, i64 %5
  %12 = load ptr, ptr %11, align 8
  %13 = tail call noundef ptr @_ZNK12ProfileModel5entryEP11profile_def(ptr align 8 poison, ptr noundef %12)
  br label %14

14:                                               ; preds = %2, %4, %8
  %.0 = phi ptr [ %13, %8 ], [ null, %4 ], [ null, %2 ]
  ret ptr %.0
}